; Function Attrs: mustprogress uwtable
define noundef ptr @_ZN5sim_t11addr_to_memEm(ptr noundef nonnull align 8 dereferenceable(2888) %0, i64 noundef %1) unnamed_addr #6 align 2 {
  %3 = icmp ult i64 %1, 72057594037927936
  br i1 %3, label %4, label %.thread

4:                                                ; preds = %2
  %5 = getelementptr inbounds i8, ptr %0, i64 1080
  %6 = tail call { i64, ptr } @_ZN5bus_t11find_deviceEm(ptr noundef nonnull align 8 dereferenceable(56) %5, i64 noundef %1)
  %7 = extractvalue { i64, ptr } %6, 0
  %8 = extractvalue { i64, ptr } %6, 1
  %9 = icmp eq ptr %8, null
  br i1 %9, label %.thread, label %10

10:                                               ; preds = %4
  %11 = tail call ptr @__dynamic_cast(ptr nonnull %8, ptr nonnull @_ZTI17abstract_device_t, ptr nonnull @_ZTI14abstract_mem_t, i64 0) #26
  %.not = icmp eq ptr %11, null
  br i1 %.not, label %.thread, label %12

12:                                               ; preds = %10
  %13 = sub i64 %1, %7
  %14 = load ptr, ptr %11, align 8
  %15 = getelementptr inbounds i8, ptr %14, i64 48
  %16 = load ptr, ptr %15, align 8
  %17 = tail call noundef i64 %16(ptr noundef nonnull align 8 dereferenceable(8) %11)
  %18 = icmp ult i64 %13, %17
  br i1 %18, label %19, label %.thread

19:                                               ; preds = %12
  %20 = load ptr, ptr %11, align 8
  %21 = getelementptr inbounds i8, ptr %20, i64 40
  %22 = load ptr, ptr %21, align 8
  %23 = tail call noundef ptr %22(ptr noundef nonnull align 8 dereferenceable(8) %11, i64 noundef %13)
  br label %.thread

.thread:                                          ; preds = %4, %10, %12, %2, %19
  %.0 = phi ptr [ %23, %19 ], [ null, %2 ], [ null, %12 ], [ null, %10 ], [ null, %4 ]
  ret ptr %.0
}